target datalayout = "e-m:e-p270:32:32-p271:32:32-p272:64:64-i64:64-i128:128-f80:128-n8:16:32:64-S128"
target triple = "x86_64-pc-linux-gnu"

%struct._Node = type { %union.anon.2 }
%union.anon.2 = type { %struct.BagNode }
%struct.BagNode = type { i32, i32, ptr, ptr, i32, %union.anon.4, i32, i32, i32, i32, i32 }
%union.anon.4 = type { %struct.anon.7 }
%struct.anon.7 = type { ptr, ptr }
%struct.anon.3 = type { i32, i32, ptr, ptr }
%struct.ConsAltNode = type { i32, i32, ptr, ptr, ptr }
%struct.ParseEnv = type { i32, i32, ptr, ptr, i32, i32, i32, ptr, ptr, ptr, ptr, ptr, i32, i32, i32, i32, [8 x %struct.MemEnv], ptr, i32, i32, i32, i32, ptr, ptr, i32, i32 }
%struct.MemEnv = type { ptr, ptr }

@ParseDepthLimit = internal global i32 4096, align 4

; Function Attrs: nounwind uwtable
define internal ptr @node_new() #0 {
  %1 = alloca ptr, align 8
  %2 = alloca ptr, align 8
  %3 = alloca i32, align 4
  call void @llvm.lifetime.start.p0(i64 8, ptr %2) #8
  %4 = call noalias ptr @malloc(i64 noundef 72) #9
  store ptr %4, ptr %2, align 8, !tbaa !111
  %5 = load ptr, ptr %2, align 8, !tbaa !111
  %6 = icmp eq ptr %5, null
  br i1 %6, label %7, label %8

7:                                                ; preds = %0
  store ptr null, ptr %1, align 8
  store i32 1, ptr %3, align 4
  br label %11

8:                                                ; preds = %0
  %9 = load ptr, ptr %2, align 8, !tbaa !111
  call void @llvm.memset.p0.i64(ptr align 8 %9, i8 0, i64 72, i1 false)
  %10 = load ptr, ptr %2, align 8, !tbaa !111
  store ptr %10, ptr %1, align 8
  store i32 1, ptr %3, align 4
  br label %11

11:                                               ; preds = %8, %7
  call void @llvm.lifetime.end.p0(i64 8, ptr %2) #8
  %12 = load ptr, ptr %1, align 8
  ret ptr %12
}

; Function Attrs: nounwind uwtable
define internal ptr @node_new_list(ptr noundef %0, ptr noundef %1) #0 {
  %3 = alloca ptr, align 8
  %4 = alloca ptr, align 8
  %5 = alloca ptr, align 8
  %6 = alloca ptr, align 8
  %7 = alloca i32, align 4
  store ptr %0, ptr %4, align 8, !tbaa !111
  store ptr %1, ptr %5, align 8, !tbaa !111
  call void @llvm.lifetime.start.p0(i64 8, ptr %6) #8
  %8 = call ptr @node_new()
  store ptr %8, ptr %6, align 8, !tbaa !111
  %9 = load ptr, ptr %6, align 8, !tbaa !111
  %10 = icmp eq ptr %9, null
  br i1 %10, label %11, label %12

11:                                               ; preds = %2
  store ptr null, ptr %3, align 8
  store i32 1, ptr %7, align 4
  br label %25

12:                                               ; preds = %2
  %13 = load ptr, ptr %6, align 8, !tbaa !111
  %14 = getelementptr inbounds nuw %struct._Node, ptr %13, i32 0, i32 0
  %15 = getelementptr inbounds nuw %struct.anon.3, ptr %14, i32 0, i32 0
  store i32 7, ptr %15, align 8, !tbaa !12
  %16 = load ptr, ptr %4, align 8, !tbaa !111
  %17 = load ptr, ptr %6, align 8, !tbaa !111
  %18 = getelementptr inbounds nuw %struct._Node, ptr %17, i32 0, i32 0
  %19 = getelementptr inbounds nuw %struct.ConsAltNode, ptr %18, i32 0, i32 3
  store ptr %16, ptr %19, align 8, !tbaa !12
  %20 = load ptr, ptr %5, align 8, !tbaa !111
  %21 = load ptr, ptr %6, align 8, !tbaa !111
  %22 = getelementptr inbounds nuw %struct._Node, ptr %21, i32 0, i32 0
  %23 = getelementptr inbounds nuw %struct.ConsAltNode, ptr %22, i32 0, i32 4
  store ptr %20, ptr %23, align 8, !tbaa !12
  %24 = load ptr, ptr %6, align 8, !tbaa !111
  store ptr %24, ptr %3, align 8
  store i32 1, ptr %7, align 4
  br label %25

25:                                               ; preds = %12, %11
  call void @llvm.lifetime.end.p0(i64 8, ptr %6) #8
  %26 = load ptr, ptr %3, align 8
  ret ptr %26
}

; Function Attrs: nounwind uwtable
define internal i32 @prs_branch(ptr noundef %0, ptr noundef %1, i32 noundef %2, ptr noundef %3, ptr noundef %4, ptr noundef %5, i32 noundef %6) #0 {
  %8 = alloca i32, align 4
  %9 = alloca ptr, align 8
  %10 = alloca ptr, align 8
  %11 = alloca i32, align 4
  %12 = alloca ptr, align 8
  %13 = alloca ptr, align 8
  %14 = alloca ptr, align 8
  %15 = alloca i32, align 4
  %16 = alloca i32, align 4
  %17 = alloca ptr, align 8
  %18 = alloca ptr, align 8
  %19 = alloca i32, align 4
  store ptr %0, ptr %9, align 8, !tbaa !119
  store ptr %1, ptr %10, align 8, !tbaa !9
  store i32 %2, ptr %11, align 4, !tbaa !10
  store ptr %3, ptr %12, align 8, !tbaa !181
  store ptr %4, ptr %13, align 8, !tbaa !4
  store ptr %5, ptr %14, align 8, !tbaa !9
  store i32 %6, ptr %15, align 4, !tbaa !10
  call void @llvm.lifetime.start.p0(i64 4, ptr %16) #8
  call void @llvm.lifetime.start.p0(i64 8, ptr %17) #8
  call void @llvm.lifetime.start.p0(i64 8, ptr %18) #8
  %20 = load ptr, ptr %9, align 8, !tbaa !119
  store ptr null, ptr %20, align 8, !tbaa !111
  br label %21

21:                                               ; preds = %7
  %22 = load ptr, ptr %14, align 8, !tbaa !9
  %23 = getelementptr inbounds nuw %struct.ParseEnv, ptr %22, i32 0, i32 24
  %24 = load i32, ptr %23, align 8, !tbaa !175
  %25 = add i32 %24, 1
  store i32 %25, ptr %23, align 8, !tbaa !175
  %26 = load ptr, ptr %14, align 8, !tbaa !9
  %27 = getelementptr inbounds nuw %struct.ParseEnv, ptr %26, i32 0, i32 24
  %28 = load i32, ptr %27, align 8, !tbaa !175
  %29 = load i32, ptr @ParseDepthLimit, align 4, !tbaa !10
  %30 = icmp ugt i32 %28, %29
  br i1 %30, label %31, label %32

31:                                               ; preds = %21
  store i32 -16, ptr %8, align 4
  store i32 1, ptr %19, align 4
  br label %144

32:                                               ; preds = %21
  br label %33

33:                                               ; preds = %32
  br label %34

34:                                               ; preds = %33
  %35 = load ptr, ptr %10, align 8, !tbaa !9
  %36 = load i32, ptr %11, align 4, !tbaa !10
  %37 = load ptr, ptr %12, align 8, !tbaa !181
  %38 = load ptr, ptr %13, align 8, !tbaa !4
  %39 = load ptr, ptr %14, align 8, !tbaa !9
  %40 = load i32, ptr %15, align 4, !tbaa !10
  %41 = call i32 @prs_exp(ptr noundef %17, ptr noundef %35, i32 noundef %36, ptr noundef %37, ptr noundef %38, ptr noundef %39, i32 noundef %40)
  store i32 %41, ptr %16, align 4, !tbaa !10
  %42 = load i32, ptr %16, align 4, !tbaa !10
  %43 = icmp slt i32 %42, 0
  br i1 %43, label %44, label %47

44:                                               ; preds = %34
  %45 = load ptr, ptr %17, align 8, !tbaa !111
  call void @onig_node_free(ptr noundef %45)
  %46 = load i32, ptr %16, align 4, !tbaa !10
  store i32 %46, ptr %8, align 4
  store i32 1, ptr %19, align 4
  br label %144

47:                                               ; preds = %34
  %48 = load i32, ptr %16, align 4, !tbaa !10
  %49 = icmp eq i32 %48, 0
  br i1 %49, label %57, label %50

50:                                               ; preds = %47
  %51 = load i32, ptr %16, align 4, !tbaa !10
  %52 = load i32, ptr %11, align 4, !tbaa !10
  %53 = icmp eq i32 %51, %52
  br i1 %53, label %57, label %54

54:                                               ; preds = %50
  %55 = load i32, ptr %16, align 4, !tbaa !10
  %56 = icmp eq i32 %55, 13
  br i1 %56, label %57, label %60

57:                                               ; preds = %54, %50, %47
  %58 = load ptr, ptr %17, align 8, !tbaa !111
  %59 = load ptr, ptr %9, align 8, !tbaa !119
  store ptr %58, ptr %59, align 8, !tbaa !111
  br label %138

60:                                               ; preds = %54
  %61 = load ptr, ptr %17, align 8, !tbaa !111
  %62 = call ptr @node_new_list(ptr noundef %61, ptr noundef null)
  %63 = load ptr, ptr %9, align 8, !tbaa !119
  store ptr %62, ptr %63, align 8, !tbaa !111
  %64 = load ptr, ptr %9, align 8, !tbaa !119
  %65 = load ptr, ptr %64, align 8, !tbaa !111
  %66 = icmp eq ptr %65, null
  br i1 %66, label %67, label %70

67:                                               ; preds = %60
  br label %68

68:                                               ; preds = %130, %67
  %69 = load ptr, ptr %17, align 8, !tbaa !111
  call void @onig_node_free(ptr noundef %69)
  store i32 -5, ptr %8, align 4
  store i32 1, ptr %19, align 4
  br label %144

70:                                               ; preds = %60
  %71 = load ptr, ptr %9, align 8, !tbaa !119
  %72 = load ptr, ptr %71, align 8, !tbaa !111
  %73 = getelementptr inbounds nuw %struct._Node, ptr %72, i32 0, i32 0
  %74 = getelementptr inbounds nuw %struct.ConsAltNode, ptr %73, i32 0, i32 4
  store ptr %74, ptr %18, align 8, !tbaa !119
  br label %75

75:                                               ; preds = %136, %70
  %76 = load i32, ptr %16, align 4, !tbaa !10
  %77 = icmp ne i32 %76, 0
  br i1 %77, label %78, label %85

78:                                               ; preds = %75
  %79 = load i32, ptr %16, align 4, !tbaa !10
  %80 = load i32, ptr %11, align 4, !tbaa !10
  %81 = icmp ne i32 %79, %80
  br i1 %81, label %82, label %85

82:                                               ; preds = %78
  %83 = load i32, ptr %16, align 4, !tbaa !10
  %84 = icmp ne i32 %83, 13
  br label %85

85:                                               ; preds = %82, %78, %75
  %86 = phi i1 [ false, %78 ], [ false, %75 ], [ %84, %82 ]
  br i1 %86, label %87, label %137

87:                                               ; preds = %85
  %88 = load ptr, ptr %10, align 8, !tbaa !9
  %89 = load i32, ptr %11, align 4, !tbaa !10
  %90 = load ptr, ptr %12, align 8, !tbaa !181
  %91 = load ptr, ptr %13, align 8, !tbaa !4
  %92 = load ptr, ptr %14, align 8, !tbaa !9
  %93 = call i32 @prs_exp(ptr noundef %17, ptr noundef %88, i32 noundef %89, ptr noundef %90, ptr noundef %91, ptr noundef %92, i32 noundef 0)
  store i32 %93, ptr %16, align 4, !tbaa !10
  %94 = load i32, ptr %16, align 4, !tbaa !10
  %95 = icmp slt i32 %94, 0
  br i1 %95, label %96, label %99

96:                                               ; preds = %87
  %97 = load ptr, ptr %17, align 8, !tbaa !111
  call void @onig_node_free(ptr noundef %97)
  %98 = load i32, ptr %16, align 4, !tbaa !10
  store i32 %98, ptr %8, align 4
  store i32 1, ptr %19, align 4
  br label %144

99:                                               ; preds = %87
  %100 = load ptr, ptr %17, align 8, !tbaa !111
  %101 = getelementptr inbounds nuw %struct._Node, ptr %100, i32 0, i32 0
  %102 = getelementptr inbounds nuw %struct.anon.3, ptr %101, i32 0, i32 0
  %103 = load i32, ptr %102, align 8, !tbaa !12
  %104 = icmp eq i32 %103, 7
  br i1 %104, label %105, label %123

105:                                              ; preds = %99
  %106 = load ptr, ptr %17, align 8, !tbaa !111
  %107 = load ptr, ptr %18, align 8, !tbaa !119
  store ptr %106, ptr %107, align 8, !tbaa !111
  br label %108

108:                                              ; preds = %114, %105
  %109 = load ptr, ptr %17, align 8, !tbaa !111
  %110 = getelementptr inbounds nuw %struct._Node, ptr %109, i32 0, i32 0
  %111 = getelementptr inbounds nuw %struct.ConsAltNode, ptr %110, i32 0, i32 4
  %112 = load ptr, ptr %111, align 8, !tbaa !12
  %113 = icmp ne ptr %112, null
  br i1 %113, label %114, label %119

114:                                              ; preds = %108
  %115 = load ptr, ptr %17, align 8, !tbaa !111
  %116 = getelementptr inbounds nuw %struct._Node, ptr %115, i32 0, i32 0
  %117 = getelementptr inbounds nuw %struct.ConsAltNode, ptr %116, i32 0, i32 4
  %118 = load ptr, ptr %117, align 8, !tbaa !12
  store ptr %118, ptr %17, align 8, !tbaa !111
  br label %108, !llvm.loop !219

119:                                              ; preds = %108
  %120 = load ptr, ptr %17, align 8, !tbaa !111
  %121 = getelementptr inbounds nuw %struct._Node, ptr %120, i32 0, i32 0
  %122 = getelementptr inbounds nuw %struct.ConsAltNode, ptr %121, i32 0, i32 4
  store ptr %122, ptr %18, align 8, !tbaa !119
  br label %136

123:                                              ; preds = %99
  %124 = load ptr, ptr %17, align 8, !tbaa !111
  %125 = call ptr @node_new_list(ptr noundef %124, ptr noundef null)
  %126 = load ptr, ptr %18, align 8, !tbaa !119
  store ptr %125, ptr %126, align 8, !tbaa !111
  %127 = load ptr, ptr %18, align 8, !tbaa !119
  %128 = load ptr, ptr %127, align 8, !tbaa !111
  %129 = icmp eq ptr %128, null
  br i1 %129, label %130, label %131

130:                                              ; preds = %123
  br label %68

131:                                              ; preds = %123
  %132 = load ptr, ptr %18, align 8, !tbaa !119
  %133 = load ptr, ptr %132, align 8, !tbaa !111
  %134 = getelementptr inbounds nuw %struct._Node, ptr %133, i32 0, i32 0
  %135 = getelementptr inbounds nuw %struct.ConsAltNode, ptr %134, i32 0, i32 4
  store ptr %135, ptr %18, align 8, !tbaa !119
  br label %136

136:                                              ; preds = %131, %119
  br label %75, !llvm.loop !220

137:                                              ; preds = %85
  br label %138

138:                                              ; preds = %137, %57
  %139 = load ptr, ptr %14, align 8, !tbaa !9
  %140 = getelementptr inbounds nuw %struct.ParseEnv, ptr %139, i32 0, i32 24
  %141 = load i32, ptr %140, align 8, !tbaa !175
  %142 = add i32 %141, -1
  store i32 %142, ptr %140, align 8, !tbaa !175
  %143 = load i32, ptr %16, align 4, !tbaa !10
  store i32 %143, ptr %8, align 4
  store i32 1, ptr %19, align 4
  br label %144

144:                                              ; preds = %138, %96, %68, %44, %31
  call void @llvm.lifetime.end.p0(i64 8, ptr %18) #8
  call void @llvm.lifetime.end.p0(i64 8, ptr %17) #8
  call void @llvm.lifetime.end.p0(i64 4, ptr %16) #8
  %145 = load i32, ptr %8, align 4
  ret i32 %145
}